; Function Attrs: nofree nounwind uwtable
define ptr @stbds_hmget_key_ts(ptr noundef readonly captures(address_is_null, ret: address, provenance) %0, i64 noundef %1, ptr noundef readonly captures(none) %2, i64 noundef %3, ptr noundef writeonly captures(none) initializes((0, 8)) %4, i32 noundef %5) local_unnamed_addr #8 {
  %7 = icmp eq ptr %0, null
  br i1 %7, label %8, label %15

8:                                                ; preds = %6
  %9 = shl i64 %1, 2
  %10 = add i64 %9, 32
  %malloc = tail call ptr @malloc(i64 %10)
  %11 = getelementptr inbounds nuw i8, ptr %malloc, i64 32
  %12 = getelementptr inbounds nuw i8, ptr %malloc, i64 16
  tail call void @llvm.memset.p0.i64(ptr noundef nonnull align 8 dereferenceable(16) %12, i8 0, i64 16, i1 false)
  %13 = getelementptr inbounds nuw i8, ptr %malloc, i64 8
  store i64 4, ptr %13, align 8, !tbaa !9
  store i64 1, ptr %malloc, align 8, !tbaa !3
  tail call void @llvm.memset.p0.i64(ptr nonnull align 1 %11, i8 0, i64 %1, i1 false)
  store i64 -1, ptr %4, align 8, !tbaa !10
  %14 = getelementptr inbounds nuw i8, ptr %11, i64 %1
  br label %32

15:                                               ; preds = %6
  %16 = sub i64 0, %1
  %17 = getelementptr inbounds i8, ptr %0, i64 %16
  %18 = getelementptr inbounds i8, ptr %17, i64 -16
  %19 = load ptr, ptr %18, align 8, !tbaa !37
  %20 = icmp eq ptr %19, null
  br i1 %20, label %31, label %21

21:                                               ; preds = %15
  %22 = tail call i64 @stbds_hm_find_slot(ptr noundef nonnull %0, i64 noundef %1, ptr noundef %2, i64 noundef %3, i64 noundef 0, i32 noundef %5)
  %23 = icmp slt i64 %22, 0
  br i1 %23, label %31, label %24

24:                                               ; preds = %21
  %25 = getelementptr inbounds nuw i8, ptr %19, i64 96
  %26 = load ptr, ptr %25, align 8, !tbaa !13
  %27 = lshr i64 %22, 3
  %28 = and i64 %22, 7
  %29 = getelementptr inbounds nuw %struct.stbds_hash_bucket, ptr %26, i64 %27, i32 1, i64 %28
  %30 = load i64, ptr %29, align 8, !tbaa !10
  br label %31

31:                                               ; preds = %24, %21, %15
  %storemerge30 = phi i64 [ -1, %15 ], [ %30, %24 ], [ -1, %21 ]
  store i64 %storemerge30, ptr %4, align 8, !tbaa !10
  br label %32

32:                                               ; preds = %31, %8
  %.0 = phi ptr [ %14, %8 ], [ %0, %31 ]
  ret ptr %.0
}